; Function Attrs: mustprogress noreturn uwtable
define hidden void @_ZN4cvc58internal6theory2ff18TheoryFiniteFields15preRegisterTermENS0_12NodeTemplateILb0EEE(ptr noundef nonnull align 8 dereferenceable(768) %0, ptr noundef readonly captures(none) %1) unnamed_addr #3 align 2 personality ptr @__gxx_personality_v0 {
  %3 = alloca %"class.cvc5::internal::NodeTemplate.458", align 8
  %4 = alloca %"class.cvc5::internal::NodeTemplate.458", align 8
  %5 = load ptr, ptr %1, align 8, !tbaa !269
  call void @llvm.lifetime.start.p0(i64 8, ptr nonnull %4)
  %6 = getelementptr inbounds nuw i8, ptr %5, i64 8
  %7 = load i64, ptr %6, align 8
  %8 = and i64 %7, 1023
  %9 = icmp eq i64 %8, 5
  br i1 %9, label %10, label %.noexc2

10:                                               ; preds = %2
  %11 = getelementptr inbounds nuw i8, ptr %0, i64 344
  store ptr %5, ptr %4, align 8, !tbaa !269
  call void @_ZN4cvc58internal6theory11TheoryState33addEqualityEngineTriggerPredicateENS0_12NodeTemplateILb0EEE(ptr noundef nonnull align 8 dereferenceable(160) %11, ptr noundef nonnull %4)
  br label %14

.noexc2:                                          ; preds = %2
  %12 = getelementptr inbounds nuw i8, ptr %0, i64 80
  %13 = load ptr, ptr %12, align 8, !tbaa !268
  call void @llvm.lifetime.start.p0(i64 8, ptr nonnull %3)
  store ptr %5, ptr %3, align 8, !tbaa !269
  call void @_ZN4cvc58internal6theory2eq14EqualityEngine15addTermInternalENS0_12NodeTemplateILb0EEEb(ptr noundef nonnull align 8 dereferenceable(1784) %13, ptr noundef nonnull %3, i1 noundef zeroext false)
  call void @llvm.lifetime.end.p0(i64 8, ptr nonnull %3)
  br label %14

14:                                               ; preds = %10, %.noexc2
  call void @llvm.lifetime.end.p0(i64 8, ptr nonnull %4)
  %15 = call ptr @__cxa_allocate_exception(i64 40) #24
  invoke void @_ZN4cvc58internal14LogicExceptionC2EPKc(ptr noundef nonnull align 8 dereferenceable(40) %15, ptr noundef nonnull @.str)
          to label %16 unwind label %common.resume

16:                                               ; preds = %14
  call void @__cxa_throw(ptr nonnull %15, ptr nonnull @_ZTIN4cvc58internal14LogicExceptionE, ptr nonnull @_ZN4cvc58internal9ExceptionD2Ev) #25
  unreachable

common.resume:                                    ; preds = %14
  %17 = landingpad { ptr, i32 }
          cleanup
  call void @__cxa_free_exception(ptr nonnull %15) #24
  resume { ptr, i32 } %17
}